target datalayout = "e-m:e-p270:32:32-p271:32:32-p272:64:64-i64:64-i128:128-f80:128-n8:16:32:64-S128"
target triple = "x86_64-pc-linux-gnu"

%struct.Gia_ParSwi_t_ = type { i32, i32, i32, i32, i32, i32, i32 }
%struct.Gia_Man_t_ = type { ptr, ptr, i32, i32, i32, i32, ptr, ptr, i32, i32, i32, ptr, ptr, %struct.Vec_Int_t_, %struct.Vec_Int_t_, i32, i32, i32, %struct.Vec_Int_t_, ptr, ptr, ptr, i32, i32, i32, i32, ptr, ptr, ptr, ptr, ptr, i32, i32, ptr, i32, ptr, ptr, ptr, ptr, ptr, ptr, ptr, ptr, ptr, ptr, ptr, ptr, ptr, ptr, ptr, ptr, ptr, ptr, %struct.Vec_Int_t_, %struct.Vec_Int_t_, ptr, ptr, ptr, ptr, ptr, ptr, ptr, ptr, ptr, ptr, ptr, ptr, ptr, ptr, ptr, ptr, ptr, ptr, ptr, ptr, ptr, i32, float, float, ptr, ptr, i32, ptr, ptr, ptr, ptr, ptr, ptr, ptr, ptr, ptr, ptr, ptr, ptr, ptr, ptr, ptr, i64, i64, ptr, ptr, i32, i32, i32, i32, i32, i32, i32, i32, i32, i32, i32, i32, ptr, ptr, ptr, ptr, ptr, ptr, ptr, ptr, i32, i32, i32, ptr, i32, i32, ptr, ptr, ptr, ptr, ptr, ptr, i32, i32, ptr, %struct.Vec_Int_t_, %struct.Vec_Int_t_, %struct.Vec_Int_t_, ptr, ptr, ptr, i32, i32, i32, i32, ptr, ptr, ptr, ptr, ptr }
%struct.Vec_Int_t_ = type { i32, i32, ptr }

@.str.8 = private unnamed_addr constant [13 x i8] c"seqsimframes\00", align 1

; Function Attrs: inlinehint nounwind willreturn memory(read) uwtable
define available_externally i32 @atoi(ptr noundef nonnull %0) #8 {
  %2 = alloca ptr, align 8
  store ptr %0, ptr %2, align 8, !tbaa !66
  %3 = load ptr, ptr %2, align 8, !tbaa !66
  %4 = call i64 @strtol(ptr noundef %3, ptr noundef null, i32 noundef 10) #11
  %5 = trunc i64 %4 to i32
  ret i32 %5
}

; Function Attrs: nounwind uwtable
define void @Gia_ManSetDefaultParamsSwi(ptr noundef %0) #0 {
  %2 = alloca ptr, align 8
  store ptr %0, ptr %2, align 8, !tbaa !3
  %3 = load ptr, ptr %2, align 8, !tbaa !3
  call void @llvm.memset.p0.i64(ptr align 4 %3, i8 0, i64 28, i1 false)
  %4 = load ptr, ptr %2, align 8, !tbaa !3
  %5 = getelementptr inbounds nuw %struct.Gia_ParSwi_t_, ptr %4, i32 0, i32 0
  store i32 10, ptr %5, align 4, !tbaa !8
  %6 = load ptr, ptr %2, align 8, !tbaa !3
  %7 = getelementptr inbounds nuw %struct.Gia_ParSwi_t_, ptr %6, i32 0, i32 1
  store i32 48, ptr %7, align 4, !tbaa !11
  %8 = load ptr, ptr %2, align 8, !tbaa !3
  %9 = getelementptr inbounds nuw %struct.Gia_ParSwi_t_, ptr %8, i32 0, i32 2
  store i32 16, ptr %9, align 4, !tbaa !12
  %10 = load ptr, ptr %2, align 8, !tbaa !3
  %11 = getelementptr inbounds nuw %struct.Gia_ParSwi_t_, ptr %10, i32 0, i32 3
  store i32 0, ptr %11, align 4, !tbaa !13
  %12 = load ptr, ptr %2, align 8, !tbaa !3
  %13 = getelementptr inbounds nuw %struct.Gia_ParSwi_t_, ptr %12, i32 0, i32 4
  store i32 0, ptr %13, align 4, !tbaa !14
  %14 = load ptr, ptr %2, align 8, !tbaa !3
  %15 = getelementptr inbounds nuw %struct.Gia_ParSwi_t_, ptr %14, i32 0, i32 5
  store i32 1, ptr %15, align 4, !tbaa !15
  %16 = load ptr, ptr %2, align 8, !tbaa !3
  %17 = getelementptr inbounds nuw %struct.Gia_ParSwi_t_, ptr %16, i32 0, i32 6
  store i32 0, ptr %17, align 4, !tbaa !16
  ret void
}

; Function Attrs: nounwind uwtable
define ptr @Gia_ManComputeSwitchProbs(ptr noundef %0, i32 noundef %1, i32 noundef %2, i32 noundef %3) #0 {
  %5 = alloca ptr, align 8
  %6 = alloca i32, align 4
  %7 = alloca i32, align 4
  %8 = alloca i32, align 4
  %9 = alloca %struct.Gia_ParSwi_t_, align 4
  %10 = alloca ptr, align 8
  store ptr %0, ptr %5, align 8, !tbaa !17
  store i32 %1, ptr %6, align 4, !tbaa !52
  store i32 %2, ptr %7, align 4, !tbaa !52
  store i32 %3, ptr %8, align 4, !tbaa !52
  call void @llvm.lifetime.start.p0(i64 28, ptr %9) #11
  call void @llvm.lifetime.start.p0(i64 8, ptr %10) #11
  store ptr %9, ptr %10, align 8, !tbaa !3
  %11 = load ptr, ptr %10, align 8, !tbaa !3
  call void @Gia_ManSetDefaultParamsSwi(ptr noundef %11)
  %12 = load i32, ptr %6, align 4, !tbaa !52
  %13 = load ptr, ptr %10, align 8, !tbaa !3
  %14 = getelementptr inbounds nuw %struct.Gia_ParSwi_t_, ptr %13, i32 0, i32 1
  store i32 %12, ptr %14, align 4, !tbaa !11
  %15 = call ptr @Abc_FrameReadFlag(ptr noundef @.str.8)
  %16 = icmp ne ptr %15, null
  br i1 %16, label %17, label %22

17:                                               ; preds = %4
  %18 = call ptr @Abc_FrameReadFlag(ptr noundef @.str.8)
  %19 = call i32 @atoi(ptr noundef %18) #14
  %20 = load ptr, ptr %10, align 8, !tbaa !3
  %21 = getelementptr inbounds nuw %struct.Gia_ParSwi_t_, ptr %20, i32 0, i32 1
  store i32 %19, ptr %21, align 4, !tbaa !11
  br label %22

22:                                               ; preds = %17, %4
  %23 = load i32, ptr %7, align 4, !tbaa !52
  %24 = load ptr, ptr %10, align 8, !tbaa !3
  %25 = getelementptr inbounds nuw %struct.Gia_ParSwi_t_, ptr %24, i32 0, i32 2
  store i32 %23, ptr %25, align 4, !tbaa !12
  %26 = load i32, ptr %8, align 4, !tbaa !52
  %27 = icmp ne i32 %26, 0
  br i1 %27, label %28, label %33

28:                                               ; preds = %22
  %29 = load ptr, ptr %10, align 8, !tbaa !3
  %30 = getelementptr inbounds nuw %struct.Gia_ParSwi_t_, ptr %29, i32 0, i32 4
  store i32 1, ptr %30, align 4, !tbaa !14
  %31 = load ptr, ptr %10, align 8, !tbaa !3
  %32 = getelementptr inbounds nuw %struct.Gia_ParSwi_t_, ptr %31, i32 0, i32 5
  store i32 0, ptr %32, align 4, !tbaa !15
  br label %38

33:                                               ; preds = %22
  %34 = load ptr, ptr %10, align 8, !tbaa !3
  %35 = getelementptr inbounds nuw %struct.Gia_ParSwi_t_, ptr %34, i32 0, i32 4
  store i32 0, ptr %35, align 4, !tbaa !14
  %36 = load ptr, ptr %10, align 8, !tbaa !3
  %37 = getelementptr inbounds nuw %struct.Gia_ParSwi_t_, ptr %36, i32 0, i32 5
  store i32 1, ptr %37, align 4, !tbaa !15
  br label %38

38:                                               ; preds = %33, %28
  %39 = load ptr, ptr %5, align 8, !tbaa !17
  %40 = load ptr, ptr %10, align 8, !tbaa !3
  %41 = call ptr @Gia_ManSwiSimulate(ptr noundef %39, ptr noundef %40)
  call void @llvm.lifetime.end.p0(i64 8, ptr %10) #11
  call void @llvm.lifetime.end.p0(i64 28, ptr %9) #11
  ret ptr %41
}

; Function Attrs: inlinehint nounwind uwtable
define internal i32 @Gia_ManRegNum(ptr noundef %0) #5 {
  %2 = alloca ptr, align 8
  store ptr %0, ptr %2, align 8, !tbaa !17
  %3 = load ptr, ptr %2, align 8, !tbaa !17
  %4 = getelementptr inbounds nuw %struct.Gia_Man_t_, ptr %3, i32 0, i32 2
  %5 = load i32, ptr %4, align 8, !tbaa !102
  ret i32 %5
}

; Function Attrs: nounwind uwtable
define ptr @Gia_ManPrintOutputProb(ptr noundef %0) #0 {
  %2 = alloca ptr, align 8
  %3 = alloca ptr, align 8
  %4 = alloca ptr, align 8
  store ptr %0, ptr %2, align 8, !tbaa !17
  call void @llvm.lifetime.start.p0(i64 8, ptr %3) #11
  call void @llvm.lifetime.start.p0(i64 8, ptr %4) #11
  %5 = load ptr, ptr %2, align 8, !tbaa !17
  %6 = call ptr @Gia_ManDup(ptr noundef %5)
  store ptr %6, ptr %4, align 8, !tbaa !17
  %7 = load ptr, ptr %4, align 8, !tbaa !17
  %8 = load ptr, ptr %2, align 8, !tbaa !17
  %9 = call i32 @Gia_ManRegNum(ptr noundef %8)
  %10 = icmp ne i32 %9, 0
  %11 = select i1 %10, i32 16, i32 1
  %12 = call ptr @Gia_ManComputeSwitchProbs(ptr noundef %7, i32 noundef %11, i32 noundef 0, i32 noundef 1)
  store ptr %12, ptr %3, align 8, !tbaa !101
  %13 = load ptr, ptr %4, align 8, !tbaa !17
  call void @Gia_ManStop(ptr noundef %13)
  %14 = load ptr, ptr %3, align 8, !tbaa !101
  call void @llvm.lifetime.end.p0(i64 8, ptr %4) #11
  call void @llvm.lifetime.end.p0(i64 8, ptr %3) #11
  ret ptr %14
}