; Function Attrs: nounwind uwtable
define noalias noundef ptr @Gia_ManPrintOutputProb(ptr noundef %0) local_unnamed_addr #2 {
  %2 = alloca %struct.Gia_ParSwi_t_, align 4
  %3 = tail call ptr @Gia_ManDup(ptr noundef %0) #17
  %4 = getelementptr i8, ptr %0, i64 16
  %.val = load i32, ptr %4, align 8, !tbaa !52
  %.not = icmp eq i32 %.val, 0
  %5 = select i1 %.not, i32 1, i32 16
  call void @llvm.lifetime.start.p0(i64 28, ptr nonnull %2) #17
  store i32 10, ptr %2, align 4, !tbaa !3
  %6 = getelementptr inbounds nuw i8, ptr %2, i64 4
  %7 = getelementptr inbounds nuw i8, ptr %2, i64 12
  store i32 0, ptr %7, align 4, !tbaa !10
  %8 = getelementptr inbounds nuw i8, ptr %2, i64 24
  store i32 0, ptr %8, align 4, !tbaa !13
  store i32 %5, ptr %6, align 4, !tbaa !8
  %9 = tail call ptr @Abc_FrameReadFlag(ptr noundef nonnull @.str.8) #17
  %.not.i = icmp eq ptr %9, null
  br i1 %.not.i, label %Gia_ManComputeSwitchProbs.exit, label %10

10:                                               ; preds = %1
  %11 = tail call ptr @Abc_FrameReadFlag(ptr noundef nonnull @.str.8) #17
  %12 = tail call i64 @strtol(ptr noundef nonnull captures(none) %11, ptr noundef null, i32 noundef 10) #17
  %13 = trunc i64 %12 to i32
  store i32 %13, ptr %6, align 4, !tbaa !8
  br label %Gia_ManComputeSwitchProbs.exit

Gia_ManComputeSwitchProbs.exit:                   ; preds = %1, %10
  %14 = getelementptr inbounds nuw i8, ptr %2, i64 20
  %15 = getelementptr inbounds nuw i8, ptr %2, i64 16
  %16 = getelementptr inbounds nuw i8, ptr %2, i64 8
  store i32 0, ptr %16, align 4, !tbaa !9
  store i32 1, ptr %15, align 4, !tbaa !11
  store i32 0, ptr %14, align 4, !tbaa !12
  %17 = call noalias noundef ptr @Gia_ManSwiSimulate(ptr noundef %3, ptr noundef nonnull %2)
  call void @llvm.lifetime.end.p0(i64 28, ptr nonnull %2) #17
  call void @Gia_ManStop(ptr noundef %3) #17
  ret ptr %17
}